; Function Attrs: mustprogress nofree norecurse nosync nounwind willreturn memory(readwrite, inaccessiblemem: none) uwtable
define internal noundef i32 @fB1(double %0, ptr noundef readonly captures(none) %1, ptr noundef readonly captures(none) %2, ptr noundef readonly captures(none) %3, ptr noundef readonly captures(none) %4, ptr noundef readonly captures(none) %5) #4 {
  %7 = load double, ptr %5, align 8, !tbaa !8
  %8 = getelementptr inbounds nuw i8, ptr %5, i64 8
  %9 = load double, ptr %8, align 8, !tbaa !11
  %10 = load ptr, ptr %1, align 8, !tbaa !18
  %11 = getelementptr inbounds nuw i8, ptr %10, i64 16
  %12 = load ptr, ptr %11, align 8, !tbaa !21
  %13 = load double, ptr %12, align 8, !tbaa !26
  %14 = getelementptr inbounds nuw i8, ptr %12, i64 8
  %15 = load double, ptr %14, align 8, !tbaa !26
  %16 = getelementptr inbounds nuw i8, ptr %12, i64 16
  %17 = load double, ptr %16, align 8, !tbaa !26
  %18 = load ptr, ptr %2, align 8, !tbaa !16
  %19 = load ptr, ptr %18, align 8, !tbaa !18
  %20 = getelementptr inbounds nuw i8, ptr %19, i64 16
  %21 = load ptr, ptr %20, align 8, !tbaa !21
  %22 = load double, ptr %21, align 8, !tbaa !26
  %23 = getelementptr inbounds nuw i8, ptr %21, i64 8
  %24 = load double, ptr %23, align 8, !tbaa !26
  %25 = getelementptr inbounds nuw i8, ptr %21, i64 16
  %26 = load double, ptr %25, align 8, !tbaa !26
  %27 = load ptr, ptr %3, align 8, !tbaa !18
  %28 = getelementptr inbounds nuw i8, ptr %27, i64 16
  %29 = load ptr, ptr %28, align 8, !tbaa !21
  %30 = load double, ptr %29, align 8, !tbaa !26
  %31 = getelementptr inbounds nuw i8, ptr %29, i64 8
  %32 = load double, ptr %31, align 8, !tbaa !26
  %33 = getelementptr inbounds nuw i8, ptr %29, i64 16
  %34 = load double, ptr %33, align 8, !tbaa !26
  %35 = getelementptr inbounds nuw i8, ptr %29, i64 24
  %36 = load double, ptr %35, align 8, !tbaa !26
  %37 = getelementptr inbounds nuw i8, ptr %29, i64 32
  %38 = load double, ptr %37, align 8, !tbaa !26
  %39 = getelementptr inbounds nuw i8, ptr %29, i64 40
  %40 = load double, ptr %39, align 8, !tbaa !26
  %41 = fmul double %7, 2.000000e+00
  %42 = fmul double %41, %13
  %43 = fneg double %13
  %44 = tail call double @llvm.fmuladd.f64(double %42, double %30, double %43)
  %45 = load ptr, ptr %4, align 8, !tbaa !18
  %46 = getelementptr inbounds nuw i8, ptr %45, i64 16
  %47 = load ptr, ptr %46, align 8, !tbaa !21
  store double %44, ptr %47, align 8, !tbaa !26
  %48 = fmul double %9, %9
  %49 = fmul double %48, %17
  %50 = tail call double @llvm.fmuladd.f64(double %49, double %34, double %32)
  %51 = fsub double %50, %15
  %52 = getelementptr inbounds nuw i8, ptr %47, i64 8
  store double %51, ptr %52, align 8, !tbaa !26
  %53 = fmul double %48, %15
  %54 = tail call double @llvm.fmuladd.f64(double %53, double %34, double %30)
  %55 = fsub double %54, %17
  %56 = getelementptr inbounds nuw i8, ptr %47, i64 16
  store double %55, ptr %56, align 8, !tbaa !26
  %57 = fmul double %30, 2.000000e+00
  %58 = tail call double @llvm.fmuladd.f64(double %7, double %22, double %13)
  %59 = fmul double %58, %57
  %60 = tail call double @llvm.fmuladd.f64(double %42, double %36, double %59)
  %61 = fsub double %60, %22
  %62 = getelementptr inbounds nuw i8, ptr %47, i64 24
  store double %61, ptr %62, align 8, !tbaa !26
  %63 = tail call double @llvm.fmuladd.f64(double %49, double %40, double %38)
  %64 = fmul double %9, %34
  %65 = fmul double %9, %64
  %66 = tail call double @llvm.fmuladd.f64(double %65, double %26, double %63)
  %67 = fsub double %66, %24
  %68 = getelementptr inbounds nuw i8, ptr %47, i64 32
  store double %67, ptr %68, align 8, !tbaa !26
  %69 = tail call double @llvm.fmuladd.f64(double %53, double %40, double %36)
  %70 = tail call double @llvm.fmuladd.f64(double %65, double %24, double %69)
  %71 = fsub double %70, %26
  %72 = getelementptr inbounds nuw i8, ptr %47, i64 40
  store double %71, ptr %72, align 8, !tbaa !26
  ret i32 0
}